target datalayout = "e-m:e-p270:32:32-p271:32:32-p272:64:64-i64:64-i128:128-f80:128-n8:16:32:64-S128"
target triple = "x86_64-pc-linux-gnu"

%class.CodeBlob = type <{ ptr, ptr, ptr, i32, i32, i32, i32, i32, i32, i16, i16, i8, i8, [2 x i8] }>
%class.CodeBuffer = type { ptr, %class.CodeSection, %class.CodeSection, %class.CodeSection, ptr, ptr, ptr, i32, ptr, %class.OopRecorder, ptr, ptr, ptr, ptr, ptr, i8, i32 }
%class.CodeSection = type { ptr, ptr, ptr, ptr, ptr, ptr, ptr, ptr, i8, i8, i32, i8, ptr }
%class.OopRecorder = type { %class.ValueRecorder, %class.ValueRecorder.0, ptr }
%class.ValueRecorder = type <{ ptr, ptr, ptr, ptr, i8, [7 x i8] }>
%class.ValueRecorder.0 = type <{ ptr, ptr, ptr, ptr, i8, [7 x i8] }>

@CodeEntryAlignment = external global i64, align 8

; Function Attrs: mustprogress nounwind uwtable
define linkonce_odr hidden noundef i32 @_Z10align_downIilTnNSt9enable_ifIXcvbsr3std11is_integralIT_EE5valueEiE4typeELi0EES1_S1_T0_(i32 noundef %0, i64 noundef %1) #1 comdat {
  %3 = alloca i32, align 4
  %4 = alloca i64, align 8
  %5 = alloca i32, align 4
  store i32 %0, ptr %3, align 4
  store i64 %1, ptr %4, align 8
  %6 = load i32, ptr %3, align 4
  %7 = load i64, ptr %4, align 8
  %8 = call noundef i64 @_ZL14alignment_maskIlTnNSt9enable_ifIXcvbsr3std11is_integralIT_EE5valueEiE4typeELi0EES1_S1_(i64 noundef %7)
  %9 = trunc i64 %8 to i32
  %10 = xor i32 %9, -1
  %11 = and i32 %6, %10
  store i32 %11, ptr %5, align 4
  %12 = load i32, ptr %5, align 4
  ret i32 %12
}

; Function Attrs: mustprogress nounwind uwtable
define linkonce_odr hidden noundef i32 @_Z12checked_castIilET_T0_(i64 noundef %0) #1 comdat {
  %2 = alloca i64, align 8
  %3 = alloca i32, align 4
  store i64 %0, ptr %2, align 8
  %4 = load i64, ptr %2, align 8
  %5 = trunc i64 %4 to i32
  store i32 %5, ptr %3, align 4
  %6 = load i32, ptr %3, align 4
  ret i32 %6
}

; Function Attrs: mustprogress nounwind uwtable
define internal noundef i64 @_ZL14alignment_maskIlTnNSt9enable_ifIXcvbsr3std11is_integralIT_EE5valueEiE4typeELi0EES1_S1_(i64 noundef %0) #1 {
  %2 = alloca i64, align 8
  store i64 %0, ptr %2, align 8
  %3 = load i64, ptr %2, align 8
  %4 = sub nsw i64 %3, 1
  ret i64 %4
}

; Function Attrs: mustprogress nounwind uwtable
define linkonce_odr hidden noundef i32 @_Z8align_upIilTnNSt9enable_ifIXcvbsr3std11is_integralIT_EE5valueEiE4typeELi0EES1_S1_T0_(i32 noundef %0, i64 noundef %1) #1 comdat {
  %3 = alloca i32, align 4
  %4 = alloca i64, align 8
  %5 = alloca i32, align 4
  store i32 %0, ptr %3, align 4
  store i64 %1, ptr %4, align 8
  %6 = load i32, ptr %3, align 4
  %7 = sext i32 %6 to i64
  %8 = load i64, ptr %4, align 8
  %9 = call noundef i64 @_ZL14alignment_maskIlTnNSt9enable_ifIXcvbsr3std11is_integralIT_EE5valueEiE4typeELi0EES1_S1_(i64 noundef %8)
  %10 = add nsw i64 %7, %9
  %11 = call noundef i32 @_Z12checked_castIilET_T0_(i64 noundef %10)
  store i32 %11, ptr %5, align 4
  %12 = load i32, ptr %5, align 4
  %13 = load i64, ptr %4, align 8
  %14 = call noundef i32 @_Z10align_downIilTnNSt9enable_ifIXcvbsr3std11is_integralIT_EE5valueEiE4typeELi0EES1_S1_T0_(i32 noundef %12, i64 noundef %13)
  ret i32 %14
}

; Function Attrs: mustprogress nounwind uwtable
define linkonce_odr hidden noundef i64 @_ZN8CodeHeap11header_sizeEv() #1 comdat align 2 {
  ret i64 8
}

; Function Attrs: mustprogress nounwind uwtable
define linkonce_odr hidden noundef i32 @_Z10align_downIiiTnNSt9enable_ifIXcvbsr3std11is_integralIT_EE5valueEiE4typeELi0EES1_S1_T0_(i32 noundef %0, i32 noundef %1) #1 comdat {
  %3 = alloca i32, align 4
  %4 = alloca i32, align 4
  %5 = alloca i32, align 4
  store i32 %0, ptr %3, align 4
  store i32 %1, ptr %4, align 4
  %6 = load i32, ptr %3, align 4
  %7 = load i32, ptr %4, align 4
  %8 = call noundef i32 @_ZL14alignment_maskIiTnNSt9enable_ifIXcvbsr3std11is_integralIT_EE5valueEiE4typeELi0EES1_S1_(i32 noundef %7)
  %9 = xor i32 %8, -1
  %10 = and i32 %6, %9
  store i32 %10, ptr %5, align 4
  %11 = load i32, ptr %5, align 4
  ret i32 %11
}

; Function Attrs: mustprogress nounwind uwtable
define linkonce_odr hidden noundef i32 @_Z12checked_castIiiET_T0_(i32 noundef %0) #1 comdat {
  %2 = alloca i32, align 4
  %3 = alloca i32, align 4
  store i32 %0, ptr %2, align 4
  %4 = load i32, ptr %2, align 4
  store i32 %4, ptr %3, align 4
  %5 = load i32, ptr %3, align 4
  ret i32 %5
}

; Function Attrs: mustprogress nounwind uwtable
define internal noundef i32 @_ZL14alignment_maskIiTnNSt9enable_ifIXcvbsr3std11is_integralIT_EE5valueEiE4typeELi0EES1_S1_(i32 noundef %0) #1 {
  %2 = alloca i32, align 4
  store i32 %0, ptr %2, align 4
  %3 = load i32, ptr %2, align 4
  %4 = sub nsw i32 %3, 1
  ret i32 %4
}

; Function Attrs: mustprogress nounwind uwtable
define hidden void @_ZN8CodeBlob12set_oop_mapsEP9OopMapSet(ptr noundef nonnull align 8 dereferenceable(54) %0, ptr noundef %1) #1 align 2 {
  %3 = alloca ptr, align 8
  %4 = alloca ptr, align 8
  store ptr %0, ptr %3, align 8
  store ptr %1, ptr %4, align 8
  %5 = load ptr, ptr %3, align 8
  %6 = load ptr, ptr %4, align 8
  %7 = icmp ne ptr %6, null
  br i1 %7, label %8, label %12

8:                                                ; preds = %2
  %9 = load ptr, ptr %4, align 8
  %10 = call noundef ptr @_ZN18ImmutableOopMapSet10build_fromEPK9OopMapSet(ptr noundef %9)
  %11 = getelementptr inbounds %class.CodeBlob, ptr %5, i32 0, i32 1
  store ptr %10, ptr %11, align 8
  br label %14

12:                                               ; preds = %2
  %13 = getelementptr inbounds %class.CodeBlob, ptr %5, i32 0, i32 1
  store ptr null, ptr %13, align 8
  br label %14

14:                                               ; preds = %12, %8
  ret void
}

; Function Attrs: mustprogress nounwind uwtable
define linkonce_odr hidden noundef ptr @_ZN10CodeBuffer5instsEv(ptr noundef nonnull align 8 dereferenceable(448) %0) #1 comdat align 2 {
  %2 = alloca ptr, align 8
  store ptr %0, ptr %2, align 8
  %3 = load ptr, ptr %2, align 8
  %4 = getelementptr inbounds %class.CodeBuffer, ptr %3, i32 0, i32 2
  ret ptr %4
}

; Function Attrs: mustprogress nounwind uwtable
define hidden noundef i32 @_ZN8CodeBlob17align_code_offsetEi(i32 noundef %0) #1 align 2 {
  %2 = alloca i32, align 4
  %3 = alloca i32, align 4
  store i32 %0, ptr %2, align 4
  %4 = call noundef i64 @_ZN8CodeHeap11header_sizeEv()
  %5 = trunc i64 %4 to i32
  store i32 %5, ptr %3, align 4
  %6 = load i32, ptr %2, align 4
  %7 = load i32, ptr %3, align 4
  %8 = add nsw i32 %6, %7
  %9 = load i64, ptr @CodeEntryAlignment, align 8
  %10 = call noundef i32 @_Z8align_upIilTnNSt9enable_ifIXcvbsr3std11is_integralIT_EE5valueEiE4typeELi0EES1_S1_T0_(i32 noundef %8, i64 noundef %9)
  %11 = load i32, ptr %3, align 4
  %12 = sub nsw i32 %10, %11
  ret i32 %12
}

; Function Attrs: mustprogress nounwind uwtable
define linkonce_odr hidden noundef i32 @_Z8align_upIiiTnNSt9enable_ifIXcvbsr3std11is_integralIT_EE5valueEiE4typeELi0EES1_S1_T0_(i32 noundef %0, i32 noundef %1) #1 comdat {
  %3 = alloca i32, align 4
  %4 = alloca i32, align 4
  %5 = alloca i32, align 4
  store i32 %0, ptr %3, align 4
  store i32 %1, ptr %4, align 4
  %6 = load i32, ptr %3, align 4
  %7 = load i32, ptr %4, align 4
  %8 = call noundef i32 @_ZL14alignment_maskIiTnNSt9enable_ifIXcvbsr3std11is_integralIT_EE5valueEiE4typeELi0EES1_S1_(i32 noundef %7)
  %9 = add nsw i32 %6, %8
  %10 = call noundef i32 @_Z12checked_castIiiET_T0_(i32 noundef %9)
  store i32 %10, ptr %5, align 4
  %11 = load i32, ptr %5, align 4
  %12 = load i32, ptr %4, align 4
  %13 = call noundef i32 @_Z10align_downIiiTnNSt9enable_ifIXcvbsr3std11is_integralIT_EE5valueEiE4typeELi0EES1_S1_T0_(i32 noundef %11, i32 noundef %12)
  ret i32 %13
}

; Function Attrs: mustprogress nounwind uwtable
define linkonce_odr hidden void @_ZN10CodeBuffer21copy_code_and_locs_toEP8CodeBlob(ptr noundef nonnull align 8 dereferenceable(448) %0, ptr noundef %1) #1 comdat align 2 {
  %3 = alloca ptr, align 8
  %4 = alloca ptr, align 8
  store ptr %0, ptr %3, align 8
  store ptr %1, ptr %4, align 8
  %5 = load ptr, ptr %3, align 8
  %6 = load ptr, ptr %4, align 8
  %7 = call noundef i32 @_ZNK10CodeBuffer19copy_relocations_toEP8CodeBlob(ptr noundef nonnull align 8 dereferenceable(448) %5, ptr noundef %6)
  %8 = load ptr, ptr %4, align 8
  call void @_ZN10CodeBuffer12copy_code_toEP8CodeBlob(ptr noundef nonnull align 8 dereferenceable(448) %5, ptr noundef %8)
  ret void
}

; Function Attrs: mustprogress nounwind uwtable
define hidden void @_ZN8CodeBlobC2EPKc12CodeBlobKindP10CodeBufferitsiP9OopMapSetb(ptr noundef nonnull align 8 dereferenceable(54) %0, ptr noundef %1, i8 noundef zeroext %2, ptr noundef %3, i32 noundef %4, i16 noundef zeroext %5, i16 noundef signext %6, i32 noundef %7, ptr noundef %8, i1 noundef zeroext %9) unnamed_addr #1 align 2 {
  %11 = alloca ptr, align 8
  %12 = alloca ptr, align 8
  %13 = alloca i8, align 1
  %14 = alloca ptr, align 8
  %15 = alloca i32, align 4
  %16 = alloca i16, align 2
  %17 = alloca i16, align 2
  %18 = alloca i32, align 4
  %19 = alloca ptr, align 8
  %20 = alloca i8, align 1
  store ptr %0, ptr %11, align 8
  store ptr %1, ptr %12, align 8
  store i8 %2, ptr %13, align 1
  store ptr %3, ptr %14, align 8
  store i32 %4, ptr %15, align 4
  store i16 %5, ptr %16, align 2
  store i16 %6, ptr %17, align 2
  store i32 %7, ptr %18, align 4
  store ptr %8, ptr %19, align 8
  %21 = zext i1 %9 to i8
  store i8 %21, ptr %20, align 1
  %22 = load ptr, ptr %11, align 8
  store ptr getelementptr inbounds inrange(-16, 56) ({ [9 x ptr] }, ptr @_ZTV8CodeBlob, i32 0, i32 0, i32 2), ptr %22, align 8
  %23 = getelementptr inbounds %class.CodeBlob, ptr %22, i32 0, i32 1
  store ptr null, ptr %23, align 8
  %24 = getelementptr inbounds %class.CodeBlob, ptr %22, i32 0, i32 2
  %25 = load ptr, ptr %12, align 8
  store ptr %25, ptr %24, align 8
  %26 = getelementptr inbounds %class.CodeBlob, ptr %22, i32 0, i32 3
  %27 = load i32, ptr %15, align 4
  store i32 %27, ptr %26, align 8
  %28 = getelementptr inbounds %class.CodeBlob, ptr %22, i32 0, i32 4
  %29 = load ptr, ptr %14, align 8
  %30 = call noundef i32 @_ZNK10CodeBuffer21total_relocation_sizeEv(ptr noundef nonnull align 8 dereferenceable(448) %29)
  %31 = call noundef i32 @_Z8align_upIiiTnNSt9enable_ifIXcvbsr3std11is_integralIT_EE5valueEiE4typeELi0EES1_S1_T0_(i32 noundef %30, i32 noundef 8)
  store i32 %31, ptr %28, align 4
  %32 = getelementptr inbounds %class.CodeBlob, ptr %22, i32 0, i32 5
  %33 = load i16, ptr %16, align 2
  %34 = zext i16 %33 to i32
  %35 = getelementptr inbounds %class.CodeBlob, ptr %22, i32 0, i32 4
  %36 = load i32, ptr %35, align 4
  %37 = add nsw i32 %34, %36
  %38 = call noundef i32 @_ZN8CodeBlob17align_code_offsetEi(i32 noundef %37)
  store i32 %38, ptr %32, align 8
  %39 = getelementptr inbounds %class.CodeBlob, ptr %22, i32 0, i32 6
  %40 = getelementptr inbounds %class.CodeBlob, ptr %22, i32 0, i32 5
  %41 = load i32, ptr %40, align 8
  %42 = load ptr, ptr %14, align 8
  %43 = load ptr, ptr %14, align 8
  %44 = call noundef ptr @_ZN10CodeBuffer5instsEv(ptr noundef nonnull align 8 dereferenceable(448) %43)
  %45 = call noundef i32 @_ZNK10CodeBuffer15total_offset_ofEPK11CodeSection(ptr noundef nonnull align 8 dereferenceable(448) %42, ptr noundef %44)
  %46 = add nsw i32 %41, %45
  store i32 %46, ptr %39, align 4
  %47 = getelementptr inbounds %class.CodeBlob, ptr %22, i32 0, i32 7
  %48 = getelementptr inbounds %class.CodeBlob, ptr %22, i32 0, i32 5
  %49 = load i32, ptr %48, align 8
  %50 = load ptr, ptr %14, align 8
  %51 = call noundef i32 @_ZNK10CodeBuffer18total_content_sizeEv(ptr noundef nonnull align 8 dereferenceable(448) %50)
  %52 = call noundef i32 @_Z8align_upIiiTnNSt9enable_ifIXcvbsr3std11is_integralIT_EE5valueEiE4typeELi0EES1_S1_T0_(i32 noundef %51, i32 noundef 8)
  %53 = add nsw i32 %49, %52
  store i32 %53, ptr %47, align 8
  %54 = getelementptr inbounds %class.CodeBlob, ptr %22, i32 0, i32 8
  %55 = load i32, ptr %18, align 4
  store i32 %55, ptr %54, align 4
  %56 = getelementptr inbounds %class.CodeBlob, ptr %22, i32 0, i32 9
  %57 = load i16, ptr %16, align 2
  store i16 %57, ptr %56, align 8
  %58 = getelementptr inbounds %class.CodeBlob, ptr %22, i32 0, i32 10
  %59 = load i16, ptr %17, align 2
  store i16 %59, ptr %58, align 2
  %60 = getelementptr inbounds %class.CodeBlob, ptr %22, i32 0, i32 11
  %61 = load i8, ptr %13, align 1
  store i8 %61, ptr %60, align 4
  %62 = getelementptr inbounds %class.CodeBlob, ptr %22, i32 0, i32 12
  %63 = load i8, ptr %20, align 1
  %64 = trunc i8 %63 to i1
  %65 = zext i1 %64 to i8
  store i8 %65, ptr %62, align 1
  %66 = load ptr, ptr %19, align 8
  call void @_ZN8CodeBlob12set_oop_mapsEP9OopMapSet(ptr noundef nonnull align 8 dereferenceable(54) %22, ptr noundef %66)
  ret void
}

; Function Attrs: mustprogress nounwind uwtable
define hidden void @_ZN11RuntimeBlobC2EPKc12CodeBlobKindP10CodeBufferitsiP9OopMapSetb(ptr noundef nonnull align 8 dereferenceable(54) %0, ptr noundef %1, i8 noundef zeroext %2, ptr noundef %3, i32 noundef %4, i16 noundef zeroext %5, i16 noundef signext %6, i32 noundef %7, ptr noundef %8, i1 noundef zeroext %9) unnamed_addr #1 align 2 {
  %11 = alloca ptr, align 8
  %12 = alloca ptr, align 8
  %13 = alloca i8, align 1
  %14 = alloca ptr, align 8
  %15 = alloca i32, align 4
  %16 = alloca i16, align 2
  %17 = alloca i16, align 2
  %18 = alloca i32, align 4
  %19 = alloca ptr, align 8
  %20 = alloca i8, align 1
  store ptr %0, ptr %11, align 8
  store ptr %1, ptr %12, align 8
  store i8 %2, ptr %13, align 1
  store ptr %3, ptr %14, align 8
  store i32 %4, ptr %15, align 4
  store i16 %5, ptr %16, align 2
  store i16 %6, ptr %17, align 2
  store i32 %7, ptr %18, align 4
  store ptr %8, ptr %19, align 8
  %21 = zext i1 %9 to i8
  store i8 %21, ptr %20, align 1
  %22 = load ptr, ptr %11, align 8
  %23 = load ptr, ptr %12, align 8
  %24 = load i8, ptr %13, align 1
  %25 = load ptr, ptr %14, align 8
  %26 = load i32, ptr %15, align 4
  %27 = load i16, ptr %16, align 2
  %28 = load i16, ptr %17, align 2
  %29 = load i32, ptr %18, align 4
  %30 = load ptr, ptr %19, align 8
  %31 = load i8, ptr %20, align 1
  %32 = trunc i8 %31 to i1
  call void @_ZN8CodeBlobC2EPKc12CodeBlobKindP10CodeBufferitsiP9OopMapSetb(ptr noundef nonnull align 8 dereferenceable(54) %22, ptr noundef %23, i8 noundef zeroext %24, ptr noundef %25, i32 noundef %26, i16 noundef zeroext %27, i16 noundef signext %28, i32 noundef %29, ptr noundef %30, i1 noundef zeroext %32)
  store ptr getelementptr inbounds inrange(-16, 56) ({ [9 x ptr] }, ptr @_ZTV11RuntimeBlob, i32 0, i32 0, i32 2), ptr %22, align 8
  %33 = load ptr, ptr %14, align 8
  call void @_ZN10CodeBuffer21copy_code_and_locs_toEP8CodeBlob(ptr noundef nonnull align 8 dereferenceable(448) %33, ptr noundef %22)
  ret void
}

; Function Attrs: mustprogress nounwind uwtable
define hidden void @_ZN10BufferBlobC2EPKc12CodeBlobKindP10CodeBufferi(ptr noundef nonnull align 8 dereferenceable(54) %0, ptr noundef %1, i8 noundef zeroext %2, ptr noundef %3, i32 noundef %4) unnamed_addr #1 align 2 {
  %6 = alloca ptr, align 8
  %7 = alloca ptr, align 8
  %8 = alloca i8, align 1
  %9 = alloca ptr, align 8
  %10 = alloca i32, align 4
  store ptr %0, ptr %6, align 8
  store ptr %1, ptr %7, align 8
  store i8 %2, ptr %8, align 1
  store ptr %3, ptr %9, align 8
  store i32 %4, ptr %10, align 4
  %11 = load ptr, ptr %6, align 8
  %12 = load ptr, ptr %7, align 8
  %13 = load i8, ptr %8, align 1
  %14 = load ptr, ptr %9, align 8
  %15 = load i32, ptr %10, align 4
  call void @_ZN11RuntimeBlobC2EPKc12CodeBlobKindP10CodeBufferitsiP9OopMapSetb(ptr noundef nonnull align 8 dereferenceable(54) %11, ptr noundef %12, i8 noundef zeroext %13, ptr noundef %14, i32 noundef %15, i16 noundef zeroext 56, i16 noundef signext -1, i32 noundef 0, ptr noundef null, i1 noundef zeroext false)
  store ptr getelementptr inbounds inrange(-16, 56) ({ [9 x ptr] }, ptr @_ZTV10BufferBlob, i32 0, i32 0, i32 2), ptr %11, align 8
  ret void
}