; Function Attrs: mustprogress nounwind uwtable
define hidden void @_ZN10BufferBlobC2EPKc12CodeBlobKindP10CodeBufferi(ptr noundef nonnull align 8 dereferenceable(54) %0, ptr noundef %1, i8 noundef zeroext %2, ptr noundef nonnull %3, i32 noundef %4) unnamed_addr #1 align 2 {
  store ptr getelementptr inbounds inrange(-16, 56) (i8, ptr @_ZTV8CodeBlob, i64 16), ptr %0, align 8
  %6 = getelementptr inbounds i8, ptr %0, i64 8
  store ptr null, ptr %6, align 8
  %7 = getelementptr inbounds i8, ptr %0, i64 16
  store ptr %1, ptr %7, align 8
  %8 = getelementptr inbounds i8, ptr %0, i64 24
  store i32 %4, ptr %8, align 8
  %9 = getelementptr inbounds i8, ptr %0, i64 28
  %10 = tail call noundef i32 @_ZNK10CodeBuffer21total_relocation_sizeEv(ptr noundef nonnull align 8 dereferenceable(448) %3) #10
  %11 = add i32 %10, 7
  %12 = and i32 %11, -8
  store i32 %12, ptr %9, align 4
  %13 = getelementptr inbounds i8, ptr %0, i64 32
  %14 = load i64, ptr @CodeEntryAlignment, align 8
  %15 = trunc i64 %14 to i32
  %16 = add i32 %12, 63
  %17 = add i32 %16, %15
  %18 = sub i32 0, %15
  %19 = and i32 %17, %18
  %20 = add nsw i32 %19, -8
  store i32 %20, ptr %13, align 8
  %21 = getelementptr inbounds i8, ptr %0, i64 36
  %22 = getelementptr inbounds i8, ptr %3, i64 96
  %23 = tail call noundef i32 @_ZNK10CodeBuffer15total_offset_ofEPK11CodeSection(ptr noundef nonnull align 8 dereferenceable(448) %3, ptr noundef nonnull %22) #10
  %24 = add nsw i32 %20, %23
  store i32 %24, ptr %21, align 4
  %25 = getelementptr inbounds i8, ptr %0, i64 40
  %26 = load i32, ptr %13, align 8
  %27 = tail call noundef i32 @_ZNK10CodeBuffer18total_content_sizeEv(ptr noundef nonnull align 8 dereferenceable(448) %3) #10
  %28 = add i32 %27, 7
  %29 = and i32 %28, -8
  %30 = add nsw i32 %29, %26
  store i32 %30, ptr %25, align 8
  %31 = getelementptr inbounds i8, ptr %0, i64 44
  store i32 0, ptr %31, align 4
  %32 = getelementptr inbounds i8, ptr %0, i64 48
  store i16 56, ptr %32, align 8
  %33 = getelementptr inbounds i8, ptr %0, i64 50
  store i16 -1, ptr %33, align 2
  %34 = getelementptr inbounds i8, ptr %0, i64 52
  store i8 %2, ptr %34, align 4
  %35 = getelementptr inbounds i8, ptr %0, i64 53
  store i8 0, ptr %35, align 1
  store ptr null, ptr %6, align 8
  store ptr getelementptr inbounds inrange(-16, 56) (i8, ptr @_ZTV11RuntimeBlob, i64 16), ptr %0, align 8
  %36 = tail call noundef i32 @_ZNK10CodeBuffer19copy_relocations_toEP8CodeBlob(ptr noundef nonnull align 8 dereferenceable(448) %3, ptr noundef nonnull %0) #10
  tail call void @_ZN10CodeBuffer12copy_code_toEP8CodeBlob(ptr noundef nonnull align 8 dereferenceable(448) %3, ptr noundef nonnull %0) #10
  store ptr getelementptr inbounds inrange(-16, 56) (i8, ptr @_ZTV10BufferBlob, i64 16), ptr %0, align 8
  ret void
}